target datalayout = "e-m:e-p270:32:32-p271:32:32-p272:64:64-i64:64-i128:128-f80:128-n8:16:32:64-S128"
target triple = "x86_64-pc-linux-gnu"

; Function Attrs: mustprogress nounwind uwtable
define noundef signext i8 @_ZN6icu_7714HebrewCalendar10isLeapYearEi(i32 noundef %0) #3 align 2 {
  %2 = alloca i32, align 4
  %3 = alloca i64, align 8
  store i32 %0, ptr %2, align 4, !tbaa !15
  call void @llvm.lifetime.start.p0(i64 8, ptr %3) #11
  %4 = load i32, ptr %2, align 4, !tbaa !15
  %5 = sext i32 %4 to i64
  %6 = mul nsw i64 %5, 12
  %7 = add nsw i64 %6, 17
  %8 = srem i64 %7, 19
  store i64 %8, ptr %3, align 8, !tbaa !19
  %9 = load i64, ptr %3, align 8, !tbaa !19
  %10 = load i64, ptr %3, align 8, !tbaa !19
  %11 = icmp slt i64 %10, 0
  %12 = select i1 %11, i32 -7, i32 12
  %13 = sext i32 %12 to i64
  %14 = icmp sge i64 %9, %13
  %15 = zext i1 %14 to i8
  call void @llvm.lifetime.end.p0(i64 8, ptr %3) #11
  ret i8 %15
}

; Function Attrs: mustprogress nounwind uwtable
define internal noundef i32 @_ZN6icu_7712_GLOBAL__N_112monthsInYearEi(i32 noundef %0) #3 {
  %2 = alloca i32, align 4
  store i32 %0, ptr %2, align 4, !tbaa !15
  %3 = load i32, ptr %2, align 4, !tbaa !15
  %4 = call noundef signext i8 @_ZN6icu_7714HebrewCalendar10isLeapYearEi(i32 noundef %3)
  %5 = icmp ne i8 %4, 0
  %6 = select i1 %5, i32 13, i32 12
  ret i32 %6
}

; Function Attrs: inlinehint mustprogress nounwind uwtable
define internal noundef signext i8 @_ZL9U_FAILURE10UErrorCode(i32 noundef %0) #4 {
  %2 = alloca i32, align 4
  store i32 %0, ptr %2, align 4, !tbaa !17
  %3 = load i32, ptr %2, align 4, !tbaa !17
  %4 = icmp sgt i32 %3, 0
  %5 = zext i1 %4 to i8
  ret i8 %5
}

; Function Attrs: mustprogress uwtable
define noundef i64 @_ZNK6icu_7714HebrewCalendar23handleComputeMonthStartEiiaR10UErrorCode(ptr noundef nonnull align 8 dereferenceable(192) %0, i32 noundef %1, i32 noundef %2, i8 noundef signext %3, ptr noundef nonnull align 4 dereferenceable(4) %4) unnamed_addr #0 align 2 {
  %6 = alloca i64, align 8
  %7 = alloca ptr, align 8
  %8 = alloca i32, align 4
  %9 = alloca i32, align 4
  %10 = alloca i8, align 1
  %11 = alloca ptr, align 8
  %12 = alloca i64, align 8
  %13 = alloca i32, align 4
  %14 = alloca i32, align 4
  store ptr %0, ptr %7, align 8, !tbaa !3
  store i32 %1, ptr %8, align 4, !tbaa !15
  store i32 %2, ptr %9, align 4, !tbaa !15
  store i8 %3, ptr %10, align 1, !tbaa !21
  store ptr %4, ptr %11, align 8, !tbaa !10
  %15 = load ptr, ptr %11, align 8, !tbaa !10
  %16 = load i32, ptr %15, align 4, !tbaa !17
  %17 = call noundef signext i8 @_ZL9U_FAILURE10UErrorCode(i32 noundef %16)
  %18 = icmp ne i8 %17, 0
  br i1 %18, label %19, label %20

19:                                               ; preds = %5
  store i64 0, ptr %6, align 8
  br label %129

20:                                               ; preds = %5
  %21 = load i32, ptr %9, align 4, !tbaa !15
  %22 = icmp sle i32 %21, -235
  br i1 %22, label %26, label %23

23:                                               ; preds = %20
  %24 = load i32, ptr %9, align 4, !tbaa !15
  %25 = icmp sge i32 %24, 235
  br i1 %25, label %26, label %38

26:                                               ; preds = %23, %20
  %27 = load i32, ptr %8, align 4, !tbaa !15
  %28 = load i32, ptr %9, align 4, !tbaa !15
  %29 = sdiv i32 %28, 235
  %30 = mul nsw i32 %29, 19
  %31 = call signext i8 @uprv_add32_overflow_77(i32 noundef %27, i32 noundef %30, ptr noundef %8)
  %32 = icmp ne i8 %31, 0
  br i1 %32, label %33, label %35

33:                                               ; preds = %26
  %34 = load ptr, ptr %11, align 8, !tbaa !10
  store i32 1, ptr %34, align 4, !tbaa !17
  store i64 0, ptr %6, align 8
  br label %129

35:                                               ; preds = %26
  %36 = load i32, ptr %9, align 4, !tbaa !15
  %37 = srem i32 %36, 235
  store i32 %37, ptr %9, align 4, !tbaa !15
  br label %38

38:                                               ; preds = %35, %23
  br label %39

39:                                               ; preds = %54, %38
  %40 = load i32, ptr %9, align 4, !tbaa !15
  %41 = icmp slt i32 %40, 0
  br i1 %41, label %42, label %55

42:                                               ; preds = %39
  %43 = load i32, ptr %8, align 4, !tbaa !15
  %44 = call signext i8 @uprv_add32_overflow_77(i32 noundef %43, i32 noundef -1, ptr noundef %8)
  %45 = icmp ne i8 %44, 0
  br i1 %45, label %52, label %46

46:                                               ; preds = %42
  %47 = load i32, ptr %9, align 4, !tbaa !15
  %48 = load i32, ptr %8, align 4, !tbaa !15
  %49 = call noundef i32 @_ZN6icu_7712_GLOBAL__N_112monthsInYearEi(i32 noundef %48)
  %50 = call signext i8 @uprv_add32_overflow_77(i32 noundef %47, i32 noundef %49, ptr noundef %9)
  %51 = icmp ne i8 %50, 0
  br i1 %51, label %52, label %54

52:                                               ; preds = %46, %42
  %53 = load ptr, ptr %11, align 8, !tbaa !10
  store i32 1, ptr %53, align 4, !tbaa !17
  store i64 0, ptr %6, align 8
  br label %129

54:                                               ; preds = %46
  br label %39, !llvm.loop !39

55:                                               ; preds = %39
  br label %56

56:                                               ; preds = %72, %55
  %57 = load i32, ptr %9, align 4, !tbaa !15
  %58 = icmp sgt i32 %57, 12
  br i1 %58, label %59, label %73

59:                                               ; preds = %56
  %60 = load i32, ptr %9, align 4, !tbaa !15
  %61 = load i32, ptr %8, align 4, !tbaa !15
  %62 = call noundef i32 @_ZN6icu_7712_GLOBAL__N_112monthsInYearEi(i32 noundef %61)
  %63 = sub nsw i32 0, %62
  %64 = call signext i8 @uprv_add32_overflow_77(i32 noundef %60, i32 noundef %63, ptr noundef %9)
  %65 = icmp ne i8 %64, 0
  br i1 %65, label %70, label %66

66:                                               ; preds = %59
  %67 = load i32, ptr %8, align 4, !tbaa !15
  %68 = call signext i8 @uprv_add32_overflow_77(i32 noundef %67, i32 noundef 1, ptr noundef %8)
  %69 = icmp ne i8 %68, 0
  br i1 %69, label %70, label %72

70:                                               ; preds = %66, %59
  %71 = load ptr, ptr %11, align 8, !tbaa !10
  store i32 1, ptr %71, align 4, !tbaa !17
  store i64 0, ptr %6, align 8
  br label %129

72:                                               ; preds = %66
  br label %56, !llvm.loop !40

73:                                               ; preds = %56
  call void @llvm.lifetime.start.p0(i64 8, ptr %12) #11
  %74 = load i32, ptr %8, align 4, !tbaa !15
  %75 = load ptr, ptr %11, align 8, !tbaa !10
  %76 = call noundef i32 @_ZN6icu_7712_GLOBAL__N_111startOfYearEiR10UErrorCode(i32 noundef %74, ptr noundef nonnull align 4 dereferenceable(4) %75)
  %77 = sext i32 %76 to i64
  store i64 %77, ptr %12, align 8, !tbaa !19
  %78 = load ptr, ptr %11, align 8, !tbaa !10
  %79 = load i32, ptr %78, align 4, !tbaa !17
  %80 = call noundef signext i8 @_ZL9U_FAILURE10UErrorCode(i32 noundef %79)
  %81 = icmp ne i8 %80, 0
  br i1 %81, label %82, label %83

82:                                               ; preds = %73
  store i64 0, ptr %6, align 8
  store i32 1, ptr %13, align 4
  br label %128

83:                                               ; preds = %73
  %84 = load i32, ptr %9, align 4, !tbaa !15
  %85 = icmp ne i32 %84, 0
  br i1 %85, label %86, label %125

86:                                               ; preds = %83
  call void @llvm.lifetime.start.p0(i64 4, ptr %14) #11
  %87 = load i32, ptr %8, align 4, !tbaa !15
  %88 = load ptr, ptr %11, align 8, !tbaa !10
  %89 = call noundef i32 @_ZN6icu_7712_GLOBAL__N_18yearTypeEiR10UErrorCode(i32 noundef %87, ptr noundef nonnull align 4 dereferenceable(4) %88)
  store i32 %89, ptr %14, align 4, !tbaa !15
  %90 = load ptr, ptr %11, align 8, !tbaa !10
  %91 = load i32, ptr %90, align 4, !tbaa !17
  %92 = call noundef signext i8 @_ZL9U_FAILURE10UErrorCode(i32 noundef %91)
  %93 = icmp ne i8 %92, 0
  br i1 %93, label %94, label %95

94:                                               ; preds = %86
  store i64 0, ptr %6, align 8
  store i32 1, ptr %13, align 4
  br label %122

95:                                               ; preds = %86
  %96 = load i32, ptr %8, align 4, !tbaa !15
  %97 = call noundef signext i8 @_ZN6icu_7714HebrewCalendar10isLeapYearEi(i32 noundef %96)
  %98 = icmp ne i8 %97, 0
  br i1 %98, label %99, label %110

99:                                               ; preds = %95
  %100 = load i32, ptr %9, align 4, !tbaa !15
  %101 = sext i32 %100 to i64
  %102 = getelementptr inbounds [14 x [3 x i16]], ptr @_ZL16LEAP_MONTH_START, i64 0, i64 %101
  %103 = load i32, ptr %14, align 4, !tbaa !15
  %104 = sext i32 %103 to i64
  %105 = getelementptr inbounds [3 x i16], ptr %102, i64 0, i64 %104
  %106 = load i16, ptr %105, align 2, !tbaa !34
  %107 = sext i16 %106 to i64
  %108 = load i64, ptr %12, align 8, !tbaa !19
  %109 = add nsw i64 %108, %107
  store i64 %109, ptr %12, align 8, !tbaa !19
  br label %121

110:                                              ; preds = %95
  %111 = load i32, ptr %9, align 4, !tbaa !15
  %112 = sext i32 %111 to i64
  %113 = getelementptr inbounds [14 x [3 x i16]], ptr @_ZL11MONTH_START, i64 0, i64 %112
  %114 = load i32, ptr %14, align 4, !tbaa !15
  %115 = sext i32 %114 to i64
  %116 = getelementptr inbounds [3 x i16], ptr %113, i64 0, i64 %115
  %117 = load i16, ptr %116, align 2, !tbaa !34
  %118 = sext i16 %117 to i64
  %119 = load i64, ptr %12, align 8, !tbaa !19
  %120 = add nsw i64 %119, %118
  store i64 %120, ptr %12, align 8, !tbaa !19
  br label %121

121:                                              ; preds = %110, %99
  store i32 0, ptr %13, align 4
  br label %122

122:                                              ; preds = %121, %94
  call void @llvm.lifetime.end.p0(i64 4, ptr %14) #11
  %123 = load i32, ptr %13, align 4
  switch i32 %123, label %128 [
    i32 0, label %124
  ]

124:                                              ; preds = %122
  br label %125

125:                                              ; preds = %124, %83
  %126 = load i64, ptr %12, align 8, !tbaa !19
  %127 = add nsw i64 %126, 347997
  store i64 %127, ptr %6, align 8
  store i32 1, ptr %13, align 4
  br label %128

128:                                              ; preds = %125, %122, %82
  call void @llvm.lifetime.end.p0(i64 8, ptr %12) #11
  br label %129

129:                                              ; preds = %128, %70, %52, %33, %19
  %130 = load i64, ptr %6, align 8
  ret i64 %130
}