; Function Attrs: mustprogress uwtable
define noundef range(i64 -2147168419, 2147864412) i64 @_ZNK6icu_7714HebrewCalendar23handleComputeMonthStartEiiaR10UErrorCode(ptr nonnull readnone align 8 captures(none) %0, i32 noundef %1, i32 noundef %2, i8 signext %3, ptr noundef nonnull align 4 dereferenceable(4) %4) unnamed_addr #0 align 2 {
  %6 = alloca i32, align 4
  %7 = alloca i32, align 4
  store i32 %1, ptr %6, align 4, !tbaa !9
  store i32 %2, ptr %7, align 4, !tbaa !9
  %8 = load i32, ptr %4, align 4, !tbaa !6
  %9 = icmp slt i32 %8, 1
  br i1 %9, label %10, label %78

10:                                               ; preds = %5
  %11 = add i32 %2, -235
  %or.cond = icmp ult i32 %11, -469
  br i1 %or.cond, label %12, label %.preheader35

12:                                               ; preds = %10
  %13 = sdiv i32 %2, 235
  %14 = srem i32 %2, 235
  %15 = mul nsw i32 %13, 19
  %16 = call signext i8 @uprv_add32_overflow_77(i32 noundef %1, i32 noundef %15, ptr noundef nonnull %6)
  %.not20 = icmp eq i8 %16, 0
  br i1 %.not20, label %18, label %17

17:                                               ; preds = %12
  store i32 1, ptr %4, align 4, !tbaa !6
  br label %78

18:                                               ; preds = %12
  store i32 %14, ptr %7, align 4, !tbaa !9
  br label %.preheader35

.preheader35:                                     ; preds = %10, %18
  br label %19

19:                                               ; preds = %.preheader35, %26
  %20 = load i32, ptr %7, align 4, !tbaa !9
  %21 = icmp slt i32 %20, 0
  br i1 %21, label %23, label %.preheader

.preheader:                                       ; preds = %19
  %22 = icmp samesign ugt i32 %20, 12
  br i1 %22, label %.lr.ph, label %._crit_edge

23:                                               ; preds = %19
  %24 = load i32, ptr %6, align 4, !tbaa !9
  %25 = call signext i8 @uprv_add32_overflow_77(i32 noundef %24, i32 noundef -1, ptr noundef nonnull %6)
  %.not27 = icmp eq i8 %25, 0
  br i1 %.not27, label %26, label %37

26:                                               ; preds = %23
  %27 = load i32, ptr %7, align 4, !tbaa !9
  %28 = load i32, ptr %6, align 4, !tbaa !9
  %29 = sext i32 %28 to i64
  %30 = mul nsw i64 %29, 12
  %31 = add nsw i64 %30, 17
  %32 = srem i64 %31, 19
  %33 = icmp slt i64 %32, 0
  %34 = select i1 %33, i64 -7, i64 12
  %.not1.i = icmp slt i64 %32, %34
  %35 = select i1 %.not1.i, i32 12, i32 13
  %36 = call signext i8 @uprv_add32_overflow_77(i32 noundef %27, i32 noundef %35, ptr noundef nonnull %7)
  %.not28 = icmp eq i8 %36, 0
  br i1 %.not28, label %19, label %37, !llvm.loop !21

37:                                               ; preds = %26, %23
  store i32 1, ptr %4, align 4, !tbaa !6
  br label %78

thread-pre-split:                                 ; preds = %48
  %.pr = load i32, ptr %7, align 4, !tbaa !9
  %38 = icmp sgt i32 %.pr, 12
  br i1 %38, label %.lr.ph, label %._crit_edge

.lr.ph:                                           ; preds = %.preheader, %thread-pre-split
  %39 = phi i32 [ %.pr, %thread-pre-split ], [ %20, %.preheader ]
  %40 = load i32, ptr %6, align 4, !tbaa !9
  %41 = sext i32 %40 to i64
  %42 = mul nsw i64 %41, 12
  %43 = add nsw i64 %42, 17
  %44 = srem i64 %43, 19
  %45 = icmp slt i64 %44, 0
  %46 = select i1 %45, i64 -7, i64 12
  %.not1.i29 = icmp slt i64 %44, %46
  %.neg = select i1 %.not1.i29, i32 -12, i32 -13
  %47 = call signext i8 @uprv_add32_overflow_77(i32 noundef %39, i32 noundef %.neg, ptr noundef nonnull %7)
  %.not25 = icmp eq i8 %47, 0
  br i1 %.not25, label %48, label %51

48:                                               ; preds = %.lr.ph
  %49 = load i32, ptr %6, align 4, !tbaa !9
  %50 = call signext i8 @uprv_add32_overflow_77(i32 noundef %49, i32 noundef 1, ptr noundef nonnull %6)
  %.not26 = icmp eq i8 %50, 0
  br i1 %.not26, label %thread-pre-split, label %51, !llvm.loop !22

51:                                               ; preds = %48, %.lr.ph
  store i32 1, ptr %4, align 4, !tbaa !6
  br label %78

._crit_edge:                                      ; preds = %thread-pre-split, %.preheader
  %52 = load i32, ptr %6, align 4, !tbaa !9
  %53 = call fastcc noundef i32 @_ZN6icu_7712_GLOBAL__N_111startOfYearEiR10UErrorCode(i32 noundef %52, ptr noundef nonnull align 4 dereferenceable(4) %4)
  %54 = sext i32 %53 to i64
  %55 = load i32, ptr %4, align 4, !tbaa !6
  %56 = icmp slt i32 %55, 1
  br i1 %56, label %57, label %78

57:                                               ; preds = %._crit_edge
  %58 = load i32, ptr %7, align 4, !tbaa !9
  %.not22 = icmp eq i32 %58, 0
  br i1 %.not22, label %76, label %59

59:                                               ; preds = %57
  %60 = load i32, ptr %6, align 4, !tbaa !9
  %61 = call fastcc noundef i32 @_ZN6icu_7712_GLOBAL__N_18yearTypeEiR10UErrorCode(i32 noundef %60, ptr noundef nonnull align 4 dereferenceable(4) %4)
  %62 = load i32, ptr %4, align 4, !tbaa !6
  %63 = icmp slt i32 %62, 1
  br i1 %63, label %.thread, label %78

.thread:                                          ; preds = %59
  %64 = load i32, ptr %6, align 4, !tbaa !9
  %65 = sext i32 %64 to i64
  %66 = mul nsw i64 %65, 12
  %67 = add nsw i64 %66, 17
  %68 = srem i64 %67, 19
  %69 = icmp slt i64 %68, 0
  %70 = select i1 %69, i64 -7, i64 12
  %.not = icmp slt i64 %68, %70
  %71 = load i32, ptr %7, align 4
  %72 = sext i32 %71 to i64
  %73 = zext nneg i32 %61 to i64
  %74 = getelementptr inbounds [14 x [3 x i16]], ptr @_ZL16LEAP_MONTH_START, i64 0, i64 %72, i64 %73
  %75 = getelementptr inbounds [14 x [3 x i16]], ptr @_ZL11MONTH_START, i64 0, i64 %72, i64 %73
  %.pn.in.in = select i1 %.not, ptr %75, ptr %74
  %.pn.in = load i16, ptr %.pn.in.in, align 2, !tbaa !18
  %.pn = sext i16 %.pn.in to i64
  %.218 = add nsw i64 %.pn, %54
  br label %76

76:                                               ; preds = %.thread, %57
  %.016 = phi i64 [ %54, %57 ], [ %.218, %.thread ]
  %77 = add nsw i64 %.016, 347997
  br label %78

78:                                               ; preds = %59, %76, %._crit_edge, %5, %51, %37, %17
  %.0 = phi i64 [ 0, %17 ], [ 0, %37 ], [ 0, %51 ], [ 0, %5 ], [ %77, %76 ], [ 0, %._crit_edge ], [ 0, %59 ]
  ret i64 %.0
}